; Function Attrs: cold mustprogress nofree noreturn nounwind uwtable
define dso_local void @_Z4helpRKSt6vectorISt17basic_string_viewIcSt11char_traitsIcEESaIS3_EE(ptr noundef nonnull readonly align 8 captures(none) dereferenceable(24) %0) local_unnamed_addr #2 {
  %2 = load ptr, ptr %0, align 8, !tbaa !8
  %3 = getelementptr inbounds nuw i8, ptr %2, i64 8
  %4 = load ptr, ptr %3, align 8, !tbaa !12
  %5 = tail call i32 (ptr, ...) @printf(ptr noundef nonnull dereferenceable(1) @.str, ptr noundef %4)
  %puts = tail call i32 @puts(ptr nonnull dereferenceable(1) @str)
  tail call void @exit(i32 noundef 1) #25
  unreachable
}